target datalayout = "e-m:e-p270:32:32-p271:32:32-p272:64:64-i64:64-i128:128-f80:128-n8:16:32:64-S128"
target triple = "x86_64-pc-linux-gnu"

%struct.darktable_t = type { %struct.dt_codepath_t, i32, i32, ptr, ptr, ptr, ptr, ptr, ptr, ptr, ptr, ptr, ptr, ptr, ptr, ptr, ptr, ptr, ptr, ptr, ptr, ptr, ptr, ptr, ptr, ptr, ptr, ptr, ptr, ptr, [64 x %struct.dt_pthread_mutex_t], %struct.dt_pthread_mutex_t, %struct.dt_pthread_mutex_t, %struct.dt_pthread_mutex_t, %struct.dt_pthread_mutex_t, %struct.dt_pthread_mutex_t, ptr, ptr, ptr, ptr, ptr, ptr, ptr, ptr, ptr, ptr, ptr, ptr, ptr, %struct.dt_lua_state_t, ptr, double, ptr, i32, [47 x i32], i32, i32, ptr, ptr, %struct.dt_sys_resources_t, %struct.dt_backthumb_t, %struct.dt_gimp_t }
%struct.dt_codepath_t = type { i8, [3 x i8] }
%struct.dt_pthread_mutex_t = type { %union.pthread_mutex_t }
%union.pthread_mutex_t = type { %struct.__pthread_mutex_s }
%struct.__pthread_mutex_s = type { i32, i32, i32, i32, i32, i16, i16, %struct.__pthread_internal_list }
%struct.__pthread_internal_list = type { ptr, ptr }
%struct.dt_lua_state_t = type { i32 }
%struct.dt_sys_resources_t = type { i64, i64, ptr, ptr, i32 }
%struct.dt_backthumb_t = type { double, double, i32, i32, i32, i32 }
%struct.dt_gimp_t = type { i32, ptr, ptr, i32, i32 }
%struct._GdkRGBA = type { double, double, double, double }
%struct._DtBauhausWidget = type { %struct._GtkDrawingArea, i32, ptr, ptr, i32, [256 x i8], i32, ptr, i32, ptr, ptr, i32, ptr, i32, i32, i32, %struct._GtkBorder, %struct._GtkBorder, i32, %union.dt_bauhaus_data_t }
%struct._GtkDrawingArea = type { %struct._GtkWidget, ptr }
%struct._GtkWidget = type { %struct._GObject, ptr }
%struct._GObject = type { %struct._GTypeInstance, i32, ptr }
%struct._GTypeInstance = type { ptr }
%struct._GtkBorder = type { i16, i16, i16, i16 }
%union.dt_bauhaus_data_t = type { %struct.dt_bauhaus_slider_data_t }
%struct.dt_bauhaus_slider_data_t = type { float, float, float, float, float, float, float, float, float, float, i32, ptr, i32, ptr, i8, ptr, float, float, i8, i32, ptr }
%struct.dt_bauhaus_t = type { ptr, %struct.dt_bauhaus_popup_t, ptr, float, float, i32, i32, float, [180 x i8], i32, i32, [2 x i32], i32, ptr, ptr, float, float, float, float, float, ptr, ptr, i32, i32, i32, %struct._GdkRGBA, %struct._GdkRGBA, %struct._GdkRGBA, %struct._GdkRGBA, %struct._GdkRGBA, %struct._GdkRGBA, %struct._GdkRGBA, %struct._GdkRGBA, %struct._GdkRGBA, %struct._GdkRGBA, %struct._GdkRGBA, %struct._GdkRGBA, %struct._GdkRGBA, %struct._GdkRGBA, %struct._GdkRGBA, [3 x %struct._GdkRGBA], [5 x %struct._GdkRGBA] }
%struct.dt_bauhaus_popup_t = type { ptr, ptr, %struct._GtkBorder, %struct._cairo_rectangle_int, i32, i32, i32 }
%struct._cairo_rectangle_int = type { i32, i32, i32, i32 }

@dt_bh_get_type.static_g_define_type_id = internal global i64 0, align 8
@darktable = external global %struct.darktable_t, align 8

; Function Attrs: nounwind uwtable
define i64 @dt_bh_get_type() #0 {
  %1 = alloca i32, align 4
  %2 = alloca i64, align 8
  %3 = alloca ptr, align 8
  %4 = alloca i64, align 8
  %5 = alloca i64, align 8
  call void @llvm.lifetime.start.p0(i64 8, ptr %2) #13
  call void @llvm.lifetime.start.p0(i64 8, ptr %3) #13
  store ptr @dt_bh_get_type.static_g_define_type_id, ptr %3, align 8, !tbaa !6
  %6 = load ptr, ptr %3, align 8, !tbaa !6
  %7 = load atomic i64, ptr %6 seq_cst, align 8
  store i64 %7, ptr %2, align 8
  %8 = load i64, ptr %2, align 8, !tbaa !11
  store i64 %8, ptr %4, align 8, !tbaa !11
  call void @llvm.lifetime.end.p0(i64 8, ptr %3) #13
  call void @llvm.lifetime.end.p0(i64 8, ptr %2) #13
  %9 = load i64, ptr %4, align 8, !tbaa !11
  %10 = icmp ne i64 %9, 0
  br i1 %10, label %14, label %11

11:                                               ; preds = %0
  %12 = call i32 @g_once_init_enter(ptr noundef @dt_bh_get_type.static_g_define_type_id)
  %13 = icmp ne i32 %12, 0
  br label %14

14:                                               ; preds = %11, %0
  %15 = phi i1 [ false, %0 ], [ %13, %11 ]
  %16 = zext i1 %15 to i32
  store i32 %16, ptr %1, align 4, !tbaa !13
  %17 = load i32, ptr %1, align 4, !tbaa !13
  %18 = icmp ne i32 %17, 0
  br i1 %18, label %19, label %22

19:                                               ; preds = %14
  call void @llvm.lifetime.start.p0(i64 8, ptr %5) #13
  %20 = call i64 @dt_bh_get_type_once()
  store i64 %20, ptr %5, align 8, !tbaa !11
  %21 = load i64, ptr %5, align 8, !tbaa !11
  call void @g_once_init_leave(ptr noundef @dt_bh_get_type.static_g_define_type_id, i64 noundef %21)
  call void @llvm.lifetime.end.p0(i64 8, ptr %5) #13
  br label %22

22:                                               ; preds = %19, %14
  %23 = load i64, ptr @dt_bh_get_type.static_g_define_type_id, align 8, !tbaa !11
  ret i64 %23
}

; Function Attrs: inlinehint nounwind uwtable
define internal ptr @DT_BAUHAUS_WIDGET(ptr noundef %0) #4 {
  %2 = alloca ptr, align 8
  store ptr %0, ptr %2, align 8, !tbaa !32
  %3 = load ptr, ptr %2, align 8, !tbaa !32
  %4 = call i64 @dt_bh_get_type()
  %5 = call ptr @g_type_check_instance_cast(ptr noundef %3, i64 noundef %4)
  ret ptr %5
}

; Function Attrs: nounwind uwtable
define float @dt_bauhaus_slider_get(ptr noundef %0) #0 {
  %2 = alloca float, align 4
  %3 = alloca ptr, align 8
  %4 = alloca ptr, align 8
  %5 = alloca i32, align 4
  %6 = alloca ptr, align 8
  %7 = alloca float, align 4
  store ptr %0, ptr %3, align 8, !tbaa !15
  call void @llvm.lifetime.start.p0(i64 8, ptr %4) #13
  %8 = load ptr, ptr %3, align 8, !tbaa !15
  %9 = call ptr @DT_BAUHAUS_WIDGET(ptr noundef %8)
  store ptr %9, ptr %4, align 8, !tbaa !17
  %10 = load ptr, ptr %4, align 8, !tbaa !17
  %11 = getelementptr inbounds nuw %struct._DtBauhausWidget, ptr %10, i32 0, i32 1
  %12 = load i32, ptr %11, align 8, !tbaa !139
  %13 = icmp ne i32 %12, 1
  br i1 %13, label %14, label %15

14:                                               ; preds = %1
  store float -1.000000e+00, ptr %2, align 4
  store i32 1, ptr %5, align 4
  br label %51

15:                                               ; preds = %1
  call void @llvm.lifetime.start.p0(i64 8, ptr %6) #13
  %16 = load ptr, ptr %4, align 8, !tbaa !17
  %17 = getelementptr inbounds nuw %struct._DtBauhausWidget, ptr %16, i32 0, i32 19
  store ptr %17, ptr %6, align 8, !tbaa !140
  %18 = load ptr, ptr %6, align 8, !tbaa !140
  %19 = getelementptr inbounds nuw %struct.dt_bauhaus_slider_data_t, ptr %18, i32 0, i32 5
  %20 = load float, ptr %19, align 4, !tbaa !147
  %21 = load ptr, ptr %6, align 8, !tbaa !140
  %22 = getelementptr inbounds nuw %struct.dt_bauhaus_slider_data_t, ptr %21, i32 0, i32 4
  %23 = load float, ptr %22, align 8, !tbaa !148
  %24 = fcmp reassoc nsz arcp contract afn oeq float %20, %23
  br i1 %24, label %25, label %29

25:                                               ; preds = %15
  %26 = load ptr, ptr %6, align 8, !tbaa !140
  %27 = getelementptr inbounds nuw %struct.dt_bauhaus_slider_data_t, ptr %26, i32 0, i32 5
  %28 = load float, ptr %27, align 4, !tbaa !147
  store float %28, ptr %2, align 4
  store i32 1, ptr %5, align 4
  br label %50

29:                                               ; preds = %15
  call void @llvm.lifetime.start.p0(i64 4, ptr %7) #13
  %30 = load ptr, ptr %6, align 8, !tbaa !140
  %31 = getelementptr inbounds nuw %struct.dt_bauhaus_slider_data_t, ptr %30, i32 0, i32 20
  %32 = load ptr, ptr %31, align 8, !tbaa !209
  %33 = load ptr, ptr %6, align 8, !tbaa !140
  %34 = getelementptr inbounds nuw %struct.dt_bauhaus_slider_data_t, ptr %33, i32 0, i32 0
  %35 = load float, ptr %34, align 8, !tbaa !210
  %36 = call reassoc nsz arcp contract afn float %32(float noundef %35, i32 noundef 2)
  store float %36, ptr %7, align 4, !tbaa !130
  %37 = load ptr, ptr %6, align 8, !tbaa !140
  %38 = getelementptr inbounds nuw %struct.dt_bauhaus_slider_data_t, ptr %37, i32 0, i32 4
  %39 = load float, ptr %38, align 8, !tbaa !148
  %40 = load float, ptr %7, align 4, !tbaa !130
  %41 = load ptr, ptr %6, align 8, !tbaa !140
  %42 = getelementptr inbounds nuw %struct.dt_bauhaus_slider_data_t, ptr %41, i32 0, i32 5
  %43 = load float, ptr %42, align 4, !tbaa !147
  %44 = load ptr, ptr %6, align 8, !tbaa !140
  %45 = getelementptr inbounds nuw %struct.dt_bauhaus_slider_data_t, ptr %44, i32 0, i32 4
  %46 = load float, ptr %45, align 8, !tbaa !148
  %47 = fsub reassoc nsz arcp contract afn float %43, %46
  %48 = fmul reassoc nsz arcp contract afn float %40, %47
  %49 = fadd reassoc nsz arcp contract afn float %39, %48
  store float %49, ptr %2, align 4
  store i32 1, ptr %5, align 4
  call void @llvm.lifetime.end.p0(i64 4, ptr %7) #13
  br label %50

50:                                               ; preds = %29, %25
  call void @llvm.lifetime.end.p0(i64 8, ptr %6) #13
  br label %51

51:                                               ; preds = %50, %14
  call void @llvm.lifetime.end.p0(i64 8, ptr %4) #13
  %52 = load float, ptr %2, align 4
  ret float %52
}

; Function Attrs: nounwind uwtable
define internal void @_slider_zoom_range(ptr noundef %0, float noundef %1) #0 {
  %3 = alloca ptr, align 8
  %4 = alloca float, align 4
  %5 = alloca ptr, align 8
  %6 = alloca float, align 4
  %7 = alloca i32, align 4
  %8 = alloca float, align 4
  %9 = alloca float, align 4
  %10 = alloca float, align 4
  %11 = alloca float, align 4
  store ptr %0, ptr %3, align 8, !tbaa !17
  store float %1, ptr %4, align 4, !tbaa !130
  call void @llvm.lifetime.start.p0(i64 8, ptr %5) #13
  %12 = load ptr, ptr %3, align 8, !tbaa !17
  %13 = getelementptr inbounds nuw %struct._DtBauhausWidget, ptr %12, i32 0, i32 19
  store ptr %13, ptr %5, align 8, !tbaa !140
  call void @llvm.lifetime.start.p0(i64 4, ptr %6) #13
  %14 = load ptr, ptr %3, align 8, !tbaa !17
  %15 = call i64 @gtk_widget_get_type() #14
  %16 = call ptr @g_type_check_instance_cast(ptr noundef %14, i64 noundef %15)
  %17 = call reassoc nsz arcp contract afn float @dt_bauhaus_slider_get(ptr noundef %16)
  store float %17, ptr %6, align 4, !tbaa !130
  %18 = load float, ptr %4, align 4, !tbaa !130
  %19 = fcmp reassoc nsz arcp contract afn une float %18, 0.000000e+00
  br i1 %19, label %35, label %20

20:                                               ; preds = %2
  %21 = load ptr, ptr %5, align 8, !tbaa !140
  %22 = getelementptr inbounds nuw %struct.dt_bauhaus_slider_data_t, ptr %21, i32 0, i32 6
  %23 = load float, ptr %22, align 8, !tbaa !207
  %24 = load ptr, ptr %5, align 8, !tbaa !140
  %25 = getelementptr inbounds nuw %struct.dt_bauhaus_slider_data_t, ptr %24, i32 0, i32 4
  store float %23, ptr %25, align 8, !tbaa !148
  %26 = load ptr, ptr %5, align 8, !tbaa !140
  %27 = getelementptr inbounds nuw %struct.dt_bauhaus_slider_data_t, ptr %26, i32 0, i32 7
  %28 = load float, ptr %27, align 4, !tbaa !211
  %29 = load ptr, ptr %5, align 8, !tbaa !140
  %30 = getelementptr inbounds nuw %struct.dt_bauhaus_slider_data_t, ptr %29, i32 0, i32 5
  store float %28, ptr %30, align 4, !tbaa !147
  %31 = load ptr, ptr %3, align 8, !tbaa !17
  %32 = call i64 @gtk_widget_get_type() #14
  %33 = call ptr @g_type_check_instance_cast(ptr noundef %31, i64 noundef %32)
  %34 = load float, ptr %6, align 4, !tbaa !130
  call void @dt_bauhaus_slider_set(ptr noundef %33, float noundef %34)
  store i32 1, ptr %7, align 4
  br label %107

35:                                               ; preds = %2
  call void @llvm.lifetime.start.p0(i64 4, ptr %8) #13
  %36 = load ptr, ptr %5, align 8, !tbaa !140
  %37 = getelementptr inbounds nuw %struct.dt_bauhaus_slider_data_t, ptr %36, i32 0, i32 10
  %38 = load i32, ptr %37, align 8, !tbaa !146
  %39 = sub nsw i32 0, %38
  %40 = sitofp i32 %39 to float
  %41 = call reassoc nsz arcp contract afn float @llvm.pow.f32(float 1.000000e+01, float %40)
  %42 = load ptr, ptr %5, align 8, !tbaa !140
  %43 = getelementptr inbounds nuw %struct.dt_bauhaus_slider_data_t, ptr %42, i32 0, i32 16
  %44 = load float, ptr %43, align 8, !tbaa !149
  %45 = fdiv reassoc nsz arcp contract afn float %41, %44
  store float %45, ptr %8, align 4, !tbaa !130
  call void @llvm.lifetime.start.p0(i64 4, ptr %9) #13
  %46 = load float, ptr %4, align 4, !tbaa !130
  %47 = fdiv reassoc nsz arcp contract afn float %46, 2.000000e+00
  %48 = call reassoc nsz arcp contract afn float @llvm.pow.f32(float 2.000000e+00, float %47)
  store float %48, ptr %9, align 4, !tbaa !130
  call void @llvm.lifetime.start.p0(i64 4, ptr %10) #13
  %49 = load float, ptr %6, align 4, !tbaa !130
  %50 = load float, ptr %9, align 4, !tbaa !130
  %51 = load float, ptr %6, align 4, !tbaa !130
  %52 = load ptr, ptr %5, align 8, !tbaa !140
  %53 = getelementptr inbounds nuw %struct.dt_bauhaus_slider_data_t, ptr %52, i32 0, i32 4
  %54 = load float, ptr %53, align 8, !tbaa !148
  %55 = fsub reassoc nsz arcp contract afn float %51, %54
  %56 = fmul reassoc nsz arcp contract afn float %50, %55
  %57 = fsub reassoc nsz arcp contract afn float %49, %56
  store float %57, ptr %10, align 4, !tbaa !130
  call void @llvm.lifetime.start.p0(i64 4, ptr %11) #13
  %58 = load float, ptr %6, align 4, !tbaa !130
  %59 = load float, ptr %9, align 4, !tbaa !130
  %60 = load ptr, ptr %5, align 8, !tbaa !140
  %61 = getelementptr inbounds nuw %struct.dt_bauhaus_slider_data_t, ptr %60, i32 0, i32 5
  %62 = load float, ptr %61, align 4, !tbaa !147
  %63 = load float, ptr %6, align 4, !tbaa !130
  %64 = fsub reassoc nsz arcp contract afn float %62, %63
  %65 = fmul reassoc nsz arcp contract afn float %59, %64
  %66 = fadd reassoc nsz arcp contract afn float %58, %65
  store float %66, ptr %11, align 4, !tbaa !130
  %67 = load float, ptr %10, align 4, !tbaa !130
  %68 = load ptr, ptr %5, align 8, !tbaa !140
  %69 = getelementptr inbounds nuw %struct.dt_bauhaus_slider_data_t, ptr %68, i32 0, i32 8
  %70 = load float, ptr %69, align 8, !tbaa !206
  %71 = fcmp reassoc nsz arcp contract afn oge float %67, %70
  br i1 %71, label %72, label %92

72:                                               ; preds = %35
  %73 = load float, ptr %11, align 4, !tbaa !130
  %74 = load ptr, ptr %5, align 8, !tbaa !140
  %75 = getelementptr inbounds nuw %struct.dt_bauhaus_slider_data_t, ptr %74, i32 0, i32 9
  %76 = load float, ptr %75, align 4, !tbaa !208
  %77 = fcmp reassoc nsz arcp contract afn ole float %73, %76
  br i1 %77, label %78, label %92

78:                                               ; preds = %72
  %79 = load float, ptr %11, align 4, !tbaa !130
  %80 = load float, ptr %10, align 4, !tbaa !130
  %81 = fsub reassoc nsz arcp contract afn float %79, %80
  %82 = load float, ptr %8, align 4, !tbaa !130
  %83 = fmul reassoc nsz arcp contract afn float %82, 1.000000e+01
  %84 = fcmp reassoc nsz arcp contract afn oge float %81, %83
  br i1 %84, label %85, label %92

85:                                               ; preds = %78
  %86 = load float, ptr %10, align 4, !tbaa !130
  %87 = load ptr, ptr %5, align 8, !tbaa !140
  %88 = getelementptr inbounds nuw %struct.dt_bauhaus_slider_data_t, ptr %87, i32 0, i32 4
  store float %86, ptr %88, align 8, !tbaa !148
  %89 = load float, ptr %11, align 4, !tbaa !130
  %90 = load ptr, ptr %5, align 8, !tbaa !140
  %91 = getelementptr inbounds nuw %struct.dt_bauhaus_slider_data_t, ptr %90, i32 0, i32 5
  store float %89, ptr %91, align 4, !tbaa !147
  br label %92

92:                                               ; preds = %85, %78, %72, %35
  %93 = load ptr, ptr %3, align 8, !tbaa !17
  %94 = call i64 @gtk_widget_get_type() #14
  %95 = call ptr @g_type_check_instance_cast(ptr noundef %93, i64 noundef %94)
  call void @gtk_widget_queue_draw(ptr noundef %95)
  %96 = load ptr, ptr getelementptr inbounds nuw (%struct.darktable_t, ptr @darktable, i32 0, i32 17), align 8, !tbaa !78
  %97 = getelementptr inbounds nuw %struct.dt_bauhaus_t, ptr %96, i32 0, i32 0
  %98 = load ptr, ptr %97, align 8, !tbaa !104
  %99 = load ptr, ptr %3, align 8, !tbaa !17
  %100 = icmp eq ptr %98, %99
  br i1 %100, label %101, label %106

101:                                              ; preds = %92
  %102 = load ptr, ptr getelementptr inbounds nuw (%struct.darktable_t, ptr @darktable, i32 0, i32 17), align 8, !tbaa !78
  %103 = getelementptr inbounds nuw %struct.dt_bauhaus_t, ptr %102, i32 0, i32 1
  %104 = getelementptr inbounds nuw %struct.dt_bauhaus_popup_t, ptr %103, i32 0, i32 0
  %105 = load ptr, ptr %104, align 8, !tbaa !290
  call void @gtk_widget_queue_draw(ptr noundef %105)
  br label %106

106:                                              ; preds = %101, %92
  call void @llvm.lifetime.end.p0(i64 4, ptr %11) #13
  call void @llvm.lifetime.end.p0(i64 4, ptr %10) #13
  call void @llvm.lifetime.end.p0(i64 4, ptr %9) #13
  call void @llvm.lifetime.end.p0(i64 4, ptr %8) #13
  store i32 0, ptr %7, align 4
  br label %107

107:                                              ; preds = %106, %20
  call void @llvm.lifetime.end.p0(i64 4, ptr %6) #13
  call void @llvm.lifetime.end.p0(i64 8, ptr %5) #13
  %108 = load i32, ptr %7, align 4
  switch i32 %108, label %110 [
    i32 0, label %109
    i32 1, label %109
  ]

109:                                              ; preds = %107, %107
  ret void

110:                                              ; preds = %107
  unreachable
}