; Function Attrs: nounwind uwtable
define internal fastcc void @_slider_zoom_range(ptr noundef %0, float noundef %1) unnamed_addr #0 {
  %3 = tail call i64 @gtk_widget_get_type() #20
  %4 = tail call ptr @g_type_check_instance_cast(ptr noundef %0, i64 noundef %3) #19
  %5 = load atomic i64, ptr @dt_bh_get_type.static_g_define_type_id seq_cst, align 8
  %.not.i.i.i = icmp eq i64 %5, 0
  br i1 %.not.i.i.i, label %6, label %DT_BAUHAUS_WIDGET.exit.i

6:                                                ; preds = %2
  %7 = tail call i32 @g_once_init_enter(ptr noundef nonnull @dt_bh_get_type.static_g_define_type_id) #19
  %.not4.i.i.i = icmp eq i32 %7, 0
  br i1 %.not4.i.i.i, label %DT_BAUHAUS_WIDGET.exit.i, label %8

8:                                                ; preds = %6
  %9 = tail call fastcc i64 @dt_bh_get_type_once()
  tail call void @g_once_init_leave(ptr noundef nonnull @dt_bh_get_type.static_g_define_type_id, i64 noundef %9) #19
  br label %DT_BAUHAUS_WIDGET.exit.i

DT_BAUHAUS_WIDGET.exit.i:                         ; preds = %8, %6, %2
  %10 = load i64, ptr @dt_bh_get_type.static_g_define_type_id, align 8, !tbaa !6
  %11 = tail call ptr @g_type_check_instance_cast(ptr noundef %4, i64 noundef %10) #19
  %12 = getelementptr inbounds nuw i8, ptr %11, i64 40
  %13 = load i32, ptr %12, align 8, !tbaa !105
  %.not.i = icmp eq i32 %13, 1
  br i1 %.not.i, label %14, label %dt_bauhaus_slider_get.exit

14:                                               ; preds = %DT_BAUHAUS_WIDGET.exit.i
  %15 = getelementptr inbounds nuw i8, ptr %11, i64 428
  %16 = load float, ptr %15, align 4, !tbaa !120
  %17 = getelementptr inbounds nuw i8, ptr %11, i64 424
  %18 = load float, ptr %17, align 8, !tbaa !121
  %19 = fcmp reassoc nsz arcp contract afn oeq float %16, %18
  br i1 %19, label %dt_bauhaus_slider_get.exit, label %20

20:                                               ; preds = %14
  %21 = getelementptr inbounds nuw i8, ptr %11, i64 408
  %22 = getelementptr inbounds nuw i8, ptr %11, i64 512
  %23 = load ptr, ptr %22, align 8, !tbaa !142
  %24 = load float, ptr %21, align 8, !tbaa !143
  %25 = tail call reassoc nsz arcp contract afn float %23(float noundef %24, i32 noundef 2) #19
  %26 = load float, ptr %17, align 8, !tbaa !121
  %27 = load float, ptr %15, align 4, !tbaa !120
  %28 = fsub reassoc nsz arcp contract afn float %27, %26
  %29 = fmul reassoc nsz arcp contract afn float %28, %25
  %30 = fadd reassoc nsz arcp contract afn float %29, %26
  br label %dt_bauhaus_slider_get.exit

dt_bauhaus_slider_get.exit:                       ; preds = %DT_BAUHAUS_WIDGET.exit.i, %14, %20
  %.0.i = phi nsz float [ -1.000000e+00, %DT_BAUHAUS_WIDGET.exit.i ], [ %30, %20 ], [ %16, %14 ]
  %31 = fcmp reassoc nsz arcp contract afn une float %1, 0.000000e+00
  br i1 %31, label %40, label %32

32:                                               ; preds = %dt_bauhaus_slider_get.exit
  %33 = getelementptr inbounds nuw i8, ptr %0, i64 432
  %34 = load float, ptr %33, align 8, !tbaa !171
  %35 = getelementptr inbounds nuw i8, ptr %0, i64 424
  store float %34, ptr %35, align 8, !tbaa !121
  %36 = getelementptr inbounds nuw i8, ptr %0, i64 436
  %37 = load float, ptr %36, align 4, !tbaa !173
  %38 = getelementptr inbounds nuw i8, ptr %0, i64 428
  store float %37, ptr %38, align 4, !tbaa !120
  %39 = tail call ptr @g_type_check_instance_cast(ptr noundef %0, i64 noundef %3) #19
  tail call void @dt_bauhaus_slider_set(ptr noundef %39, float noundef %.0.i)
  br label %79

40:                                               ; preds = %dt_bauhaus_slider_get.exit
  %41 = getelementptr inbounds nuw i8, ptr %0, i64 448
  %42 = load i32, ptr %41, align 8, !tbaa !119
  %43 = sub nsw i32 0, %42
  %44 = tail call reassoc nsz arcp contract afn float @llvm.powi.f32.i32(float 1.000000e+01, i32 %43)
  %45 = getelementptr inbounds nuw i8, ptr %0, i64 496
  %46 = load float, ptr %45, align 8, !tbaa !122
  %47 = fmul reassoc nsz arcp contract afn float %1, 5.000000e-01
  %exp2 = tail call reassoc nsz arcp contract afn float @llvm.exp2.f32(float %47)
  %48 = getelementptr inbounds nuw i8, ptr %0, i64 424
  %49 = load float, ptr %48, align 8, !tbaa !121
  %50 = fsub reassoc nsz arcp contract afn float %.0.i, %49
  %51 = fmul reassoc nsz arcp contract afn float %50, %exp2
  %52 = fsub reassoc nsz arcp contract afn float %.0.i, %51
  %53 = getelementptr inbounds nuw i8, ptr %0, i64 428
  %54 = load float, ptr %53, align 4, !tbaa !120
  %55 = fsub reassoc nsz arcp contract afn float %54, %.0.i
  %56 = fmul reassoc nsz arcp contract afn float %55, %exp2
  %57 = fadd reassoc nsz arcp contract afn float %56, %.0.i
  %58 = getelementptr inbounds nuw i8, ptr %0, i64 440
  %59 = load float, ptr %58, align 8, !tbaa !170
  %60 = fcmp reassoc nsz arcp contract afn ult float %52, %59
  br i1 %60, label %71, label %61

61:                                               ; preds = %40
  %62 = getelementptr inbounds nuw i8, ptr %0, i64 444
  %63 = load float, ptr %62, align 4, !tbaa !172
  %64 = fcmp reassoc nsz arcp contract afn ugt float %57, %63
  br i1 %64, label %71, label %65

65:                                               ; preds = %61
  %66 = fadd reassoc nsz arcp contract afn float %56, %51
  %67 = fmul reassoc nsz arcp contract afn float %44, 1.000000e+01
  %68 = fdiv reassoc nsz arcp contract afn float %67, %46
  %69 = fcmp reassoc nsz arcp contract afn ult float %66, %68
  br i1 %69, label %71, label %70

70:                                               ; preds = %65
  store float %52, ptr %48, align 8, !tbaa !121
  store float %57, ptr %53, align 4, !tbaa !120
  br label %71

71:                                               ; preds = %70, %65, %61, %40
  %72 = tail call ptr @g_type_check_instance_cast(ptr noundef nonnull %0, i64 noundef %3) #19
  tail call void @gtk_widget_queue_draw(ptr noundef %72) #19
  %73 = load ptr, ptr getelementptr inbounds nuw (i8, ptr @darktable, i64 128), align 8, !tbaa !67
  %74 = load ptr, ptr %73, align 8, !tbaa !94
  %75 = icmp eq ptr %74, %0
  br i1 %75, label %76, label %79

76:                                               ; preds = %71
  %77 = getelementptr inbounds nuw i8, ptr %73, i64 8
  %78 = load ptr, ptr %77, align 8, !tbaa !237
  tail call void @gtk_widget_queue_draw(ptr noundef %78) #19
  br label %79

79:                                               ; preds = %71, %76, %32
  ret void
}